target datalayout = "e-m:e-p270:32:32-p271:32:32-p272:64:64-i64:64-i128:128-f80:128-n8:16:32:64-S128"
target triple = "x86_64-pc-linux-gnu"

%"class.logging::CheckOpResult" = type { ptr }
%"class.logging::LogMessage" = type <{ i32, [4 x i8], %"class.std::__cxx11::basic_ostringstream", i64, ptr, i32, [4 x i8] }>
%"class.std::__cxx11::basic_ostringstream" = type { %"class.std::basic_ostream.base", %"class.std::__cxx11::basic_stringbuf", %"class.std::basic_ios" }
%"class.std::basic_ostream.base" = type { ptr }
%"class.std::__cxx11::basic_stringbuf" = type { %"class.std::basic_streambuf", i32, %"class.std::__cxx11::basic_string" }
%"class.std::basic_streambuf" = type { ptr, ptr, ptr, ptr, ptr, ptr, ptr, %"class.std::locale" }
%"class.std::locale" = type { ptr }
%"class.std::__cxx11::basic_string" = type { %"struct.std::__cxx11::basic_string<char>::_Alloc_hider", i64, %union.anon }
%"struct.std::__cxx11::basic_string<char>::_Alloc_hider" = type { ptr }
%union.anon = type { i64, [8 x i8] }
%"class.std::basic_ios" = type { %"class.std::ios_base", ptr, i8, i8, ptr, ptr, ptr, ptr }
%"class.std::ios_base" = type { ptr, i64, i64, i32, i32, i32, ptr, %"struct.std::ios_base::_Words", [8 x %"struct.std::ios_base::_Words"], i32, ptr, %"class.std::locale" }
%"struct.std::ios_base::_Words" = type { ptr, i64 }
%"class.base::BasicStringPiece" = type { ptr, i64 }
%"class.base::Pickle" = type { ptr, ptr, i64, i64, i64 }
%"class.base::PickleIterator" = type { ptr, i64, i64 }
%"class.base::HistogramBase" = type <{ ptr, %"class.std::__cxx11::basic_string", i32, [4 x i8] }>

@.str.1 = private unnamed_addr constant [144 x i8] c"generated/home/dtcxzyw/WorkSpace/Projects/compilers/llvm-opt-benchmark/bench/libquic/libquic/src/base/metrics/persistent_histogram_allocator.cc\00", align 1

; Function Attrs: mustprogress nounwind uwtable
define available_externally noundef ptr @_ZNKSt7__cxx1112basic_stringIcSt11char_traitsIcESaIcEE7_M_dataEv(ptr noundef nonnull align 8 dereferenceable(32) %0) #2 align 2 {
  %2 = alloca ptr, align 8
  store ptr %0, ptr %2, align 8, !tbaa !86
  %3 = load ptr, ptr %2, align 8
  %4 = getelementptr inbounds nuw %"class.std::__cxx11::basic_string", ptr %3, i32 0, i32 0
  %5 = getelementptr inbounds nuw %"struct.std::__cxx11::basic_string<char>::_Alloc_hider", ptr %4, i32 0, i32 0
  %6 = load ptr, ptr %5, align 8, !tbaa !324
  ret ptr %6
}

; Function Attrs: mustprogress nounwind uwtable
define available_externally noundef i64 @_ZNKSt7__cxx1112basic_stringIcSt11char_traitsIcESaIcEE4sizeEv(ptr noundef nonnull align 8 dereferenceable(32) %0) #2 align 2 {
  %2 = alloca ptr, align 8
  store ptr %0, ptr %2, align 8, !tbaa !86
  %3 = load ptr, ptr %2, align 8
  %4 = getelementptr inbounds nuw %"class.std::__cxx11::basic_string", ptr %3, i32 0, i32 1
  %5 = load i64, ptr %4, align 8, !tbaa !140
  ret i64 %5
}

; Function Attrs: mustprogress nounwind uwtable
define available_externally noundef ptr @_ZNKSt7__cxx1112basic_stringIcSt11char_traitsIcESaIcEE4dataEv(ptr noundef nonnull align 8 dereferenceable(32) %0) #2 align 2 {
  %2 = alloca ptr, align 8
  store ptr %0, ptr %2, align 8, !tbaa !86
  %3 = load ptr, ptr %2, align 8
  %4 = call noundef ptr @_ZNKSt7__cxx1112basic_stringIcSt11char_traitsIcESaIcEE7_M_dataEv(ptr noundef nonnull align 8 dereferenceable(32) %3)
  ret ptr %4
}

; Function Attrs: mustprogress nounwind uwtable
define available_externally void @_ZN4base16BasicStringPieceINSt7__cxx1112basic_stringIcSt11char_traitsIcESaIcEEEEC2ERKS6_(ptr noundef nonnull align 8 dereferenceable(16) %0, ptr noundef nonnull align 8 dereferenceable(32) %1) unnamed_addr #2 align 2 {
  %3 = alloca ptr, align 8
  %4 = alloca ptr, align 8
  store ptr %0, ptr %3, align 8, !tbaa !171
  store ptr %1, ptr %4, align 8, !tbaa !86
  %5 = load ptr, ptr %3, align 8
  %6 = getelementptr inbounds nuw %"class.base::BasicStringPiece", ptr %5, i32 0, i32 0
  %7 = load ptr, ptr %4, align 8, !tbaa !86
  %8 = call noundef ptr @_ZNKSt7__cxx1112basic_stringIcSt11char_traitsIcESaIcEE4dataEv(ptr noundef nonnull align 8 dereferenceable(32) %7) #17
  store ptr %8, ptr %6, align 8, !tbaa !173
  %9 = getelementptr inbounds nuw %"class.base::BasicStringPiece", ptr %5, i32 0, i32 1
  %10 = load ptr, ptr %4, align 8, !tbaa !86
  %11 = call noundef i64 @_ZNKSt7__cxx1112basic_stringIcSt11char_traitsIcESaIcEE4sizeEv(ptr noundef nonnull align 8 dereferenceable(32) %10) #17
  store i64 %11, ptr %9, align 8, !tbaa !175
  ret void
}

; Function Attrs: mustprogress nounwind uwtable
define linkonce_odr noundef nonnull align 8 dereferenceable(32) ptr @_ZNK4base13HistogramBase14histogram_nameB5cxx11Ev(ptr noundef nonnull align 8 dereferenceable(44) %0) #2 comdat align 2 {
  %2 = alloca ptr, align 8
  store ptr %0, ptr %2, align 8, !tbaa !122
  %3 = load ptr, ptr %2, align 8
  %4 = getelementptr inbounds nuw %"class.base::HistogramBase", ptr %3, i32 0, i32 1
  ret ptr %4
}

; Function Attrs: mustprogress nounwind uwtable
define linkonce_odr noundef nonnull align 8 dereferenceable(8) ptr @_ZN7logging10LogMessage6streamEv(ptr noundef nonnull align 8 dereferenceable(404) %0) #2 comdat align 2 {
  %2 = alloca ptr, align 8
  store ptr %0, ptr %2, align 8, !tbaa !90
  %3 = load ptr, ptr %2, align 8
  %4 = getelementptr inbounds nuw %"class.logging::LogMessage", ptr %3, i32 0, i32 2
  ret ptr %4
}

; Function Attrs: mustprogress nounwind uwtable
define linkonce_odr noundef ptr @_ZN7logging13CheckOpResult7messageB5cxx11Ev(ptr noundef nonnull align 8 dereferenceable(8) %0) #2 comdat align 2 {
  %2 = alloca ptr, align 8
  store ptr %0, ptr %2, align 8, !tbaa !84
  %3 = load ptr, ptr %2, align 8
  %4 = getelementptr inbounds nuw %"class.logging::CheckOpResult", ptr %3, i32 0, i32 0
  %5 = load ptr, ptr %4, align 8, !tbaa !88
  ret ptr %5
}

; Function Attrs: mustprogress nounwind uwtable
define linkonce_odr noundef zeroext i1 @_ZNK7logging13CheckOpResultcvbEv(ptr noundef nonnull align 8 dereferenceable(8) %0) #2 comdat align 2 {
  %2 = alloca ptr, align 8
  store ptr %0, ptr %2, align 8, !tbaa !84
  %3 = load ptr, ptr %2, align 8
  %4 = getelementptr inbounds nuw %"class.logging::CheckOpResult", ptr %3, i32 0, i32 0
  %5 = load ptr, ptr %4, align 8, !tbaa !88
  %6 = icmp ne ptr %5, null
  %7 = xor i1 %6, true
  ret i1 %7
}

; Function Attrs: mustprogress nounwind uwtable
define linkonce_odr void @_ZN7logging13CheckOpResultC2EPNSt7__cxx1112basic_stringIcSt11char_traitsIcESaIcEEE(ptr noundef nonnull align 8 dereferenceable(8) %0, ptr noundef %1) unnamed_addr #2 comdat align 2 {
  %3 = alloca ptr, align 8
  %4 = alloca ptr, align 8
  store ptr %0, ptr %3, align 8, !tbaa !84
  store ptr %1, ptr %4, align 8, !tbaa !86
  %5 = load ptr, ptr %3, align 8
  %6 = getelementptr inbounds nuw %"class.logging::CheckOpResult", ptr %5, i32 0, i32 0
  %7 = load ptr, ptr %4, align 8, !tbaa !86
  store ptr %7, ptr %6, align 8, !tbaa !88
  ret void
}

; Function Attrs: mustprogress uwtable
define noundef ptr @_ZN4base28PersistentHistogramAllocator38GetOrCreateStatisticsRecorderHistogramEPKNS_13HistogramBaseE(ptr noundef nonnull align 8 dereferenceable(132) %0, ptr noundef %1) #0 align 2 personality ptr @__gxx_personality_v0 {
  %3 = alloca ptr, align 8
  %4 = alloca ptr, align 8
  %5 = alloca ptr, align 8
  %6 = alloca %"class.logging::CheckOpResult", align 8
  %7 = alloca %"class.logging::LogMessage", align 8
  %8 = alloca ptr, align 8
  %9 = alloca i32, align 4
  %10 = alloca ptr, align 8
  %11 = alloca %"class.base::BasicStringPiece", align 8
  %12 = alloca i32, align 4
  %13 = alloca %"class.base::Pickle", align 8
  %14 = alloca %"class.base::PickleIterator", align 8
  %15 = alloca %"class.logging::CheckOpResult", align 8
  %16 = alloca %"class.logging::LogMessage", align 8
  store ptr %0, ptr %4, align 8, !tbaa !94
  store ptr %1, ptr %5, align 8, !tbaa !122
  call void @llvm.lifetime.start.p0(i64 8, ptr %6) #17
  call void @_ZN7logging13CheckOpResultC2EPNSt7__cxx1112basic_stringIcSt11char_traitsIcESaIcEEE(ptr noundef nonnull align 8 dereferenceable(8) %6, ptr noundef null)
  %17 = call noundef zeroext i1 @_ZNK7logging13CheckOpResultcvbEv(ptr noundef nonnull align 8 dereferenceable(8) %6)
  br i1 %17, label %18, label %19

18:                                               ; preds = %2
  br label %27

19:                                               ; preds = %2
  call void @llvm.lifetime.start.p0(i64 408, ptr %7) #17
  %20 = call noundef ptr @_ZN7logging13CheckOpResult7messageB5cxx11Ev(ptr noundef nonnull align 8 dereferenceable(8) %6)
  call void @_ZN7logging10LogMessageC1EPKciiPNSt7__cxx1112basic_stringIcSt11char_traitsIcESaIcEEE(ptr noundef nonnull align 8 dereferenceable(404) %7, ptr noundef @.str.1, i32 noundef 633, i32 noundef 0, ptr noundef %20)
  %21 = invoke noundef nonnull align 8 dereferenceable(8) ptr @_ZN7logging10LogMessage6streamEv(ptr noundef nonnull align 8 dereferenceable(404) %7)
          to label %22 unwind label %23

22:                                               ; preds = %19
  call void @_ZN7logging10LogMessageD1Ev(ptr noundef nonnull align 8 dereferenceable(404) %7) #17
  call void @llvm.lifetime.end.p0(i64 408, ptr %7) #17
  br label %27

23:                                               ; preds = %19
  %24 = landingpad { ptr, i32 }
          cleanup
  %25 = extractvalue { ptr, i32 } %24, 0
  store ptr %25, ptr %8, align 8
  %26 = extractvalue { ptr, i32 } %24, 1
  store i32 %26, ptr %9, align 4
  call void @_ZN7logging10LogMessageD1Ev(ptr noundef nonnull align 8 dereferenceable(404) %7) #17
  call void @llvm.lifetime.end.p0(i64 408, ptr %7) #17
  call void @llvm.lifetime.end.p0(i64 8, ptr %6) #17
  br label %94

27:                                               ; preds = %22, %18
  call void @llvm.lifetime.end.p0(i64 8, ptr %6) #17
  call void @llvm.lifetime.start.p0(i64 8, ptr %10) #17
  %28 = load ptr, ptr %5, align 8, !tbaa !122
  %29 = call noundef nonnull align 8 dereferenceable(32) ptr @_ZNK4base13HistogramBase14histogram_nameB5cxx11Ev(ptr noundef nonnull align 8 dereferenceable(44) %28)
  call void @_ZN4base16BasicStringPieceINSt7__cxx1112basic_stringIcSt11char_traitsIcESaIcEEEEC2ERKS6_(ptr noundef nonnull align 8 dereferenceable(16) %11, ptr noundef nonnull align 8 dereferenceable(32) %29)
  %30 = getelementptr inbounds nuw { ptr, i64 }, ptr %11, i32 0, i32 0
  %31 = load ptr, ptr %30, align 8
  %32 = getelementptr inbounds nuw { ptr, i64 }, ptr %11, i32 0, i32 1
  %33 = load i64, ptr %32, align 8
  %34 = call noundef ptr @_ZN4base18StatisticsRecorder13FindHistogramENS_16BasicStringPieceINSt7__cxx1112basic_stringIcSt11char_traitsIcESaIcEEEEE(ptr %31, i64 %33)
  store ptr %34, ptr %10, align 8, !tbaa !122
  %35 = load ptr, ptr %10, align 8, !tbaa !122
  %36 = icmp ne ptr %35, null
  br i1 %36, label %37, label %39

37:                                               ; preds = %27
  %38 = load ptr, ptr %10, align 8, !tbaa !122
  store ptr %38, ptr %3, align 8
  store i32 1, ptr %12, align 4
  br label %92

39:                                               ; preds = %27
  call void @llvm.lifetime.start.p0(i64 40, ptr %13) #17
  call void @_ZN4base6PickleC1Ev(ptr noundef nonnull align 8 dereferenceable(40) %13)
  %40 = load ptr, ptr %5, align 8, !tbaa !122
  %41 = invoke noundef zeroext i1 @_ZNK4base13HistogramBase13SerializeInfoEPNS_6PickleE(ptr noundef nonnull align 8 dereferenceable(44) %40, ptr noundef %13)
          to label %42 unwind label %44

42:                                               ; preds = %39
  br i1 %41, label %48, label %43

43:                                               ; preds = %42
  store ptr null, ptr %3, align 8
  store i32 1, ptr %12, align 4
  br label %90

44:                                               ; preds = %39
  %45 = landingpad { ptr, i32 }
          cleanup
  %46 = extractvalue { ptr, i32 } %45, 0
  store ptr %46, ptr %8, align 8
  %47 = extractvalue { ptr, i32 } %45, 1
  store i32 %47, ptr %9, align 4
  br label %91

48:                                               ; preds = %42
  call void @llvm.lifetime.start.p0(i64 24, ptr %14) #17
  invoke void @_ZN4base14PickleIteratorC1ERKNS_6PickleE(ptr noundef nonnull align 8 dereferenceable(24) %14, ptr noundef nonnull align 8 dereferenceable(40) %13)
          to label %49 unwind label %55

49:                                               ; preds = %48
  %50 = invoke noundef ptr @_ZN4base24DeserializeHistogramInfoEPNS_14PickleIteratorE(ptr noundef %14)
          to label %51 unwind label %55

51:                                               ; preds = %49
  store ptr %50, ptr %10, align 8, !tbaa !122
  %52 = load ptr, ptr %10, align 8, !tbaa !122
  %53 = icmp ne ptr %52, null
  br i1 %53, label %59, label %54

54:                                               ; preds = %51
  store ptr null, ptr %3, align 8
  store i32 1, ptr %12, align 4
  br label %88

55:                                               ; preds = %83, %49, %48
  %56 = landingpad { ptr, i32 }
          cleanup
  %57 = extractvalue { ptr, i32 } %56, 0
  store ptr %57, ptr %8, align 8
  %58 = extractvalue { ptr, i32 } %56, 1
  store i32 %58, ptr %9, align 4
  br label %89

59:                                               ; preds = %51
  call void @llvm.lifetime.start.p0(i64 8, ptr %15) #17
  invoke void @_ZN7logging13CheckOpResultC2EPNSt7__cxx1112basic_stringIcSt11char_traitsIcESaIcEEE(ptr noundef nonnull align 8 dereferenceable(8) %15, ptr noundef null)
          to label %60 unwind label %64

60:                                               ; preds = %59
  %61 = invoke noundef zeroext i1 @_ZNK7logging13CheckOpResultcvbEv(ptr noundef nonnull align 8 dereferenceable(8) %15)
          to label %62 unwind label %64

62:                                               ; preds = %60
  br i1 %61, label %63, label %68

63:                                               ; preds = %62
  br label %83

64:                                               ; preds = %60, %59
  %65 = landingpad { ptr, i32 }
          cleanup
  %66 = extractvalue { ptr, i32 } %65, 0
  store ptr %66, ptr %8, align 8
  %67 = extractvalue { ptr, i32 } %65, 1
  store i32 %67, ptr %9, align 4
  br label %87

68:                                               ; preds = %62
  call void @llvm.lifetime.start.p0(i64 408, ptr %16) #17
  %69 = invoke noundef ptr @_ZN7logging13CheckOpResult7messageB5cxx11Ev(ptr noundef nonnull align 8 dereferenceable(8) %15)
          to label %70 unwind label %74

70:                                               ; preds = %68
  invoke void @_ZN7logging10LogMessageC1EPKciiPNSt7__cxx1112basic_stringIcSt11char_traitsIcESaIcEEE(ptr noundef nonnull align 8 dereferenceable(404) %16, ptr noundef @.str.1, i32 noundef 653, i32 noundef 0, ptr noundef %69)
          to label %71 unwind label %74

71:                                               ; preds = %70
  %72 = invoke noundef nonnull align 8 dereferenceable(8) ptr @_ZN7logging10LogMessage6streamEv(ptr noundef nonnull align 8 dereferenceable(404) %16)
          to label %73 unwind label %78

73:                                               ; preds = %71
  call void @_ZN7logging10LogMessageD1Ev(ptr noundef nonnull align 8 dereferenceable(404) %16) #17
  call void @llvm.lifetime.end.p0(i64 408, ptr %16) #17
  br label %83

74:                                               ; preds = %70, %68
  %75 = landingpad { ptr, i32 }
          cleanup
  %76 = extractvalue { ptr, i32 } %75, 0
  store ptr %76, ptr %8, align 8
  %77 = extractvalue { ptr, i32 } %75, 1
  store i32 %77, ptr %9, align 4
  br label %82

78:                                               ; preds = %71
  %79 = landingpad { ptr, i32 }
          cleanup
  %80 = extractvalue { ptr, i32 } %79, 0
  store ptr %80, ptr %8, align 8
  %81 = extractvalue { ptr, i32 } %79, 1
  store i32 %81, ptr %9, align 4
  call void @_ZN7logging10LogMessageD1Ev(ptr noundef nonnull align 8 dereferenceable(404) %16) #17
  br label %82

82:                                               ; preds = %78, %74
  call void @llvm.lifetime.end.p0(i64 408, ptr %16) #17
  br label %87

83:                                               ; preds = %73, %63
  call void @llvm.lifetime.end.p0(i64 8, ptr %15) #17
  %84 = load ptr, ptr %10, align 8, !tbaa !122
  %85 = invoke noundef ptr @_ZN4base18StatisticsRecorder25RegisterOrDeleteDuplicateEPNS_13HistogramBaseE(ptr noundef %84)
          to label %86 unwind label %55

86:                                               ; preds = %83
  store ptr %85, ptr %3, align 8
  store i32 1, ptr %12, align 4
  br label %88

87:                                               ; preds = %82, %64
  call void @llvm.lifetime.end.p0(i64 8, ptr %15) #17
  br label %89

88:                                               ; preds = %86, %54
  call void @llvm.lifetime.end.p0(i64 24, ptr %14) #17
  br label %90

89:                                               ; preds = %87, %55
  call void @llvm.lifetime.end.p0(i64 24, ptr %14) #17
  br label %91

90:                                               ; preds = %88, %43
  call void @_ZN4base6PickleD1Ev(ptr noundef nonnull align 8 dereferenceable(40) %13) #17
  call void @llvm.lifetime.end.p0(i64 40, ptr %13) #17
  br label %92

91:                                               ; preds = %89, %44
  call void @_ZN4base6PickleD1Ev(ptr noundef nonnull align 8 dereferenceable(40) %13) #17
  call void @llvm.lifetime.end.p0(i64 40, ptr %13) #17
  call void @llvm.lifetime.end.p0(i64 8, ptr %10) #17
  br label %94

92:                                               ; preds = %90, %37
  call void @llvm.lifetime.end.p0(i64 8, ptr %10) #17
  %93 = load ptr, ptr %3, align 8
  ret ptr %93

94:                                               ; preds = %91, %23
  %95 = load ptr, ptr %8, align 8
  %96 = load i32, ptr %9, align 4
  %97 = insertvalue { ptr, i32 } poison, ptr %95, 0
  %98 = insertvalue { ptr, i32 } %97, i32 %96, 1
  resume { ptr, i32 } %98
}