; Function Attrs: mustprogress uwtable
define noundef ptr @_ZN4base28PersistentHistogramAllocator38GetOrCreateStatisticsRecorderHistogramEPKNS_13HistogramBaseE(ptr nonnull readnone align 8 captures(none) %0, ptr noundef %1) local_unnamed_addr #0 align 2 personality ptr @__gxx_personality_v0 {
  %3 = alloca %"class.base::Pickle", align 8
  %4 = alloca %"class.base::PickleIterator", align 8
  %5 = getelementptr inbounds nuw i8, ptr %1, i64 8
  %6 = load ptr, ptr %5, align 8, !tbaa !83
  %7 = getelementptr inbounds nuw i8, ptr %1, i64 16
  %8 = load i64, ptr %7, align 8, !tbaa !85
  %9 = tail call noundef ptr @_ZN4base18StatisticsRecorder13FindHistogramENS_16BasicStringPieceINSt7__cxx1112basic_stringIcSt11char_traitsIcESaIcEEEEE(ptr %6, i64 %8)
  %.not = icmp eq ptr %9, null
  br i1 %.not, label %10, label %26

10:                                               ; preds = %2
  call void @llvm.lifetime.start.p0(i64 40, ptr nonnull %3) #21
  call void @_ZN4base6PickleC1Ev(ptr noundef nonnull align 8 dereferenceable(40) %3)
  %11 = invoke noundef zeroext i1 @_ZNK4base13HistogramBase13SerializeInfoEPNS_6PickleE(ptr noundef nonnull align 8 dereferenceable(44) %1, ptr noundef nonnull %3)
          to label %12 unwind label %13

12:                                               ; preds = %10
  br i1 %11, label %15, label %24

13:                                               ; preds = %10
  %14 = landingpad { ptr, i32 }
          cleanup
  br label %25

15:                                               ; preds = %12
  call void @llvm.lifetime.start.p0(i64 24, ptr nonnull %4) #21
  invoke void @_ZN4base14PickleIteratorC1ERKNS_6PickleE(ptr noundef nonnull align 8 dereferenceable(24) %4, ptr noundef nonnull align 8 dereferenceable(40) %3)
          to label %16 unwind label %22

16:                                               ; preds = %15
  %17 = invoke noundef ptr @_ZN4base24DeserializeHistogramInfoEPNS_14PickleIteratorE(ptr noundef nonnull %4)
          to label %18 unwind label %22

18:                                               ; preds = %16
  %.not14 = icmp eq ptr %17, null
  br i1 %.not14, label %21, label %19

19:                                               ; preds = %18
  %20 = invoke noundef ptr @_ZN4base18StatisticsRecorder25RegisterOrDeleteDuplicateEPNS_13HistogramBaseE(ptr noundef nonnull %17)
          to label %21 unwind label %22

21:                                               ; preds = %19, %18
  %.2 = phi ptr [ null, %18 ], [ %20, %19 ]
  call void @llvm.lifetime.end.p0(i64 24, ptr nonnull %4) #21
  br label %24

22:                                               ; preds = %15, %16, %19
  %23 = landingpad { ptr, i32 }
          cleanup
  call void @llvm.lifetime.end.p0(i64 24, ptr nonnull %4) #21
  br label %25

24:                                               ; preds = %12, %21
  %.111 = phi ptr [ %.2, %21 ], [ null, %12 ]
  call void @_ZN4base6PickleD1Ev(ptr noundef nonnull align 8 dereferenceable(40) %3) #21
  call void @llvm.lifetime.end.p0(i64 40, ptr nonnull %3) #21
  br label %26

25:                                               ; preds = %22, %13
  %.pn.pn = phi { ptr, i32 } [ %23, %22 ], [ %14, %13 ]
  call void @_ZN4base6PickleD1Ev(ptr noundef nonnull align 8 dereferenceable(40) %3) #21
  call void @llvm.lifetime.end.p0(i64 40, ptr nonnull %3) #21
  resume { ptr, i32 } %.pn.pn

26:                                               ; preds = %2, %24
  %.010 = phi ptr [ %.111, %24 ], [ %9, %2 ]
  ret ptr %.010
}